Certificate:
    Data:
        Version: 3 (0x2)
        Serial Number: 1 (0x1)
        Signature Algorithm: sha1WithRSAEncryption
        Issuer: C=AU, ST=Some-State, O=Test Certificate Authority, CN=Test Certificate Authority
        Validity
            Not Before: Feb 23 00:08:51 2015 GMT
            Not After : Feb 23 00:08:51 2016 GMT
        Subject: C=AU, ST=Some-State, O=Test Server, CN=www.testserver.com
        Subject Public Key Info:
            Public Key Algorithm: rsaEncryption
            RSA Public Key: (1024 bit)
                Modulus (1024 bit):
                    00:ab:ea:d1:30:33:92:38:a8:2d:78:09:fa:9f:b9:
                    b3:c2:56:9b:91:cf:07:ee:84:0a:b2:8d:33:37:61:
                    1e:6d:0c:89:e4:4d:ed:3c:12:d7:e5:4d:57:39:06:
                    1f:1b:97:70:48:a0:17:f1:af:b5:94:44:15:d2:21:
                    95:2c:bb:3f:be:32:51:e9:bf:61:e4:03:eb:34:e9:
                    f0:6d:22:0e:0b:7f:25:c7:92:20:b4:ca:8a:eb:8a:
                    e2:b0:1e:ac:25:aa:57:8c:c2:a7:5a:4b:b5:8e:34:
                    b3:7d:99:52:b1:45:1e:d1:cb:15:f2:c4:f1:22:a5:
                    45:a7:81:3e:b5:66:8b:9a:f3
                Exponent: 65537 (0x10001)
        X509v3 extensions:
            X509v3 Basic Constraints: 
                CA:FALSE
            Netscape Comment: 
                OpenSSL Generated Certificate
            X509v3 Subject Key Identifier: 
                6E:18:28:88:D7:2B:08:1C:EE:17:C6:30:A2:8E:79:FE:D2:B7:26:CD
            X509v3 Authority Key Identifier: 
                keyid:BC:84:D4:A9:F9:A2:17:EF:50:BA:85:5B:93:36:B7:32:F1:4F:58:16

    Signature Algorithm: sha1WithRSAEncryption
        c7:2c:f2:aa:fd:4a:a6:0a:84:77:be:ea:1e:3d:c4:92:92:ef:
        90:c0:2e:12:89:9b:cf:b6:86:79:30:dd:89:7c:ab:02:56:2c:
        41:0f:0d:57:a3:97:1f:68:b3:c0:ce:d6:8b:87:5b:97:c6:ca:
        ca:ad:9a:65:44:20:de:93:8c:67:63:93:3c:62:d0:21:9d:0b:
        f3:86:5a:73:e5:40:c9:e0:76:53:08:eb:7b:6b:81:49:a6:8c:
        9b:08:ad:f5:1b:0e:90:a8:be:5a:b7:ea:95:1d:60:24:fd:9e:
        32:41:5f:3d:0e:c7:75:de:67:1e:2c:3d:5d:ff:b2:f6:a3:92:
        7a:51
-----BEGIN CERTIFICATE-----
MIICsjCCAhugAwIBAgIBATANBgkqhkiG9w0BAQUFADBsMQswCQYDVQQGEwJBVTET
MBEGA1UECBMKU29tZS1TdGF0ZTEjMCEGA1UEChMaVGVzdCBDZXJ0aWZpY2F0ZSBB
dXRob3JpdHkxIzAhBgNVBAMTGlRlc3QgQ2VydGlmaWNhdGUgQXV0aG9yaXR5MB4X
DTE1MDIyMzAwMDg1MVoXDTE2MDIyMzAwMDg1MVowVTELMAkGA1UEBhMCQVUxEzAR
BgNVBAgTClNvbWUtU3RhdGUxFDASBgNVBAoTC1Rlc3QgU2VydmVyMRswGQYDVQQD
ExJ3d3cudGVzdHNlcnZlci5jb20wgZ8wDQYJKoZIhvcNAQEBBQADgY0AMIGJAoGB
AKvq0TAzkjioLXgJ+p+5s8JWm5HPB+6ECrKNMzdhHm0MieRN7TwS1+VNVzkGHxuX
cEigF/GvtZREFdIhlSy7P74yUem/YeQD6zTp8G0iDgt/JceSILTKiuuK4rAerCWq
V4zCp1pLtY40s32ZUrFFHtHLFfLE8SKlRaeBPrVmi5rzAgMBAAGjezB5MAkGA1Ud
EwQCMAAwLAYJYIZIAYb4QgENBB8WHU9wZW5TU0wgR2VuZXJhdGVkIENlcnRpZmlj
YXRlMB0GA1UdDgQWBBRuGCiI1ysIHO4XxjCijnn+0rcmzTAfBgNVHSMEGDAWgBS8
hNSp+aIX71C6hVuTNrcy8U9YFjANBgkqhkiG9w0BAQUFAAOBgQDHLPKq/UqmCoR3
vuoePcSSku+QwC4SiZvPtoZ5MN2JfKsCVixBDw1Xo5cfaLPAztaLh1uXxsrKrZpl
RCDek4xnY5M8YtAhnQvzhlpz5UDJ4HZTCOt7a4FJpoybCK31Gw6QqL5at+qVHWAk
/Z4yQV89Dsd13mceLD1d/7L2o5J6UQ==
-----END CERTIFICATE-----
